; Function Attrs: mustprogress nofree norecurse nosync nounwind willreturn memory(readwrite, argmem: none, inaccessiblemem: none) uwtable
define i32 @Abc_Random(i32 noundef %0) local_unnamed_addr #12 {
  %.not = icmp eq i32 %0, 0
  %.pre = load i32, ptr @Abc_Random.m_z, align 4
  %.pre1 = load i32, ptr @Abc_Random.m_w, align 4
  %2 = select i1 %.not, i32 %.pre1, i32 -2120863760
  %3 = select i1 %.not, i32 %.pre, i32 -578006775
  %4 = and i32 %3, 65535
  %5 = mul nuw i32 %4, 36969
  %6 = lshr i32 %3, 16
  %7 = add nuw i32 %5, %6
  store i32 %7, ptr @Abc_Random.m_z, align 4
  %8 = and i32 %2, 65535
  %9 = mul nuw nsw i32 %8, 18000
  %10 = lshr i32 %2, 16
  %11 = add nuw nsw i32 %9, %10
  store i32 %11, ptr @Abc_Random.m_w, align 4
  %12 = shl i32 %7, 16
  %13 = add i32 %11, %12
  ret i32 %13
}